; Function Attrs: nounwind uwtable
define internal range(i32 0, 2) i32 @pkey_dsa_init(ptr noundef writeonly captures(none) %0) #1 {
  %2 = tail call noalias ptr @CRYPTO_malloc(i64 noundef 32, ptr noundef nonnull @.str, i32 noundef 40) #7
  %3 = icmp eq ptr %2, null
  br i1 %3, label %12, label %4

4:                                                ; preds = %1
  store i32 2048, ptr %2, align 8, !tbaa !3
  %5 = getelementptr inbounds nuw i8, ptr %2, i64 4
  store i32 224, ptr %5, align 4, !tbaa !10
  %6 = getelementptr inbounds nuw i8, ptr %2, i64 8
  store ptr null, ptr %6, align 8, !tbaa !11
  %7 = getelementptr inbounds nuw i8, ptr %2, i64 24
  store ptr null, ptr %7, align 8, !tbaa !12
  %8 = getelementptr inbounds nuw i8, ptr %0, i64 152
  store ptr %2, ptr %8, align 8, !tbaa !13
  %9 = getelementptr inbounds nuw i8, ptr %2, i64 16
  %10 = getelementptr inbounds nuw i8, ptr %0, i64 104
  store ptr %9, ptr %10, align 8, !tbaa !25
  %11 = getelementptr inbounds nuw i8, ptr %0, i64 112
  store i32 2, ptr %11, align 8, !tbaa !26
  br label %12

12:                                               ; preds = %1, %4
  %.0 = phi i32 [ 1, %4 ], [ 0, %1 ]
  ret i32 %.0
}